target datalayout = "e-m:e-p270:32:32-p271:32:32-p272:64:64-i64:64-i128:128-f80:128-n8:16:32:64-S128"
target triple = "x86_64-unknown-linux-gnu"

%struct.Flash = type { %struct.SSIPeripheral, ptr, ptr, i32, i32, i8, [16 x i8], i32, i32, i8, i8, i8, i32, i32, i32, i32, i8, i8, i8, i8, i8, i8, i8, i8, i8, i8, i8, i8, i8, i8, i8, i8, i8, i8, i8, i8, i8, i64, ptr }
%struct.SSIPeripheral = type { %struct.DeviceState, ptr, i8, i8 }
%struct.DeviceState = type { %struct.Object, ptr, ptr, i8, i8, i64, ptr, i32, i8, ptr, %struct.NamedGPIOListHead, %struct.NamedClockListHead, %struct.BusStateHead, i32, i32, i32, %struct.ResettableState, ptr, %struct.MemReentrancyGuard }
%struct.Object = type { ptr, ptr, ptr, i32, ptr }
%struct.NamedGPIOListHead = type { ptr }
%struct.NamedClockListHead = type { ptr }
%struct.BusStateHead = type { ptr }
%struct.ResettableState = type { i32, i8, i8 }
%struct.MemReentrancyGuard = type { i8 }

@.str = private unnamed_addr constant [15 x i8] c"m25p80-generic\00", align 1
@.str.139 = private unnamed_addr constant [26 x i8] c"../qemu/hw/block/m25p80.c\00", align 1
@.str.145 = private unnamed_addr constant [7 x i8] c"n == 0\00", align 1
@__PRETTY_FUNCTION__.m25p80_write_protect_pin_irq_handler = private unnamed_addr constant [60 x i8] c"void m25p80_write_protect_pin_irq_handler(void *, int, int)\00", align 1
@__func__.M25P80 = private unnamed_addr constant [7 x i8] c"M25P80\00", align 1

; Function Attrs: nounwind sspstrong uwtable
define internal ptr @M25P80(ptr noundef %obj) #0 {
entry:
  %obj.addr = alloca ptr, align 8
  store ptr %obj, ptr %obj.addr, align 8
  %0 = load ptr, ptr %obj.addr, align 8
  %call = call ptr @object_dynamic_cast_assert(ptr noundef %0, ptr noundef @.str, ptr noundef @.str.139, i32 noundef 516, ptr noundef @__func__.M25P80)
  ret ptr %call
}

; Function Attrs: nounwind sspstrong uwtable
define internal void @m25p80_write_protect_pin_irq_handler(ptr noundef %opaque, i32 noundef %n, i32 noundef %level) #0 {
entry:
  %opaque.addr = alloca ptr, align 8
  %n.addr = alloca i32, align 4
  %level.addr = alloca i32, align 4
  %s = alloca ptr, align 8
  store ptr %opaque, ptr %opaque.addr, align 8
  store i32 %n, ptr %n.addr, align 4
  store i32 %level, ptr %level.addr, align 4
  %0 = load ptr, ptr %opaque.addr, align 8
  %call = call ptr @M25P80(ptr noundef %0)
  store ptr %call, ptr %s, align 8
  %1 = load i32, ptr %n.addr, align 4
  %cmp = icmp eq i32 %1, 0
  br i1 %cmp, label %if.then, label %if.else

if.then:                                          ; preds = %entry
  br label %if.end

if.else:                                          ; preds = %entry
  call void @__assert_fail(ptr noundef @.str.145, ptr noundef @.str.139, i32 noundef 1594, ptr noundef @__PRETTY_FUNCTION__.m25p80_write_protect_pin_irq_handler) #6
  unreachable

if.end:                                           ; preds = %if.then
  %2 = load i32, ptr %level.addr, align 4
  %tobool = icmp ne i32 %2, 0
  %lnot = xor i1 %tobool, true
  %lnot1 = xor i1 %lnot, true
  %3 = load ptr, ptr %s, align 8
  %wp_level = getelementptr inbounds %struct.Flash, ptr %3, i32 0, i32 24
  %frombool = zext i1 %lnot1 to i8
  store i8 %frombool, ptr %wp_level, align 8
  ret void
}