; Function Attrs: nounwind sspstrong uwtable
define internal void @m25p80_write_protect_pin_irq_handler(ptr noundef %opaque, i32 noundef %n, i32 noundef %level) #0 {
entry:
  %call.i = tail call ptr @object_dynamic_cast_assert(ptr noundef %opaque, ptr noundef nonnull @.str, ptr noundef nonnull @.str.139, i32 noundef 516, ptr noundef nonnull @__func__.M25P80) #13
  %cmp = icmp eq i32 %n, 0
  br i1 %cmp, label %if.end, label %if.else

if.else:                                          ; preds = %entry
  tail call void @__assert_fail(ptr noundef nonnull @.str.145, ptr noundef nonnull @.str.139, i32 noundef 1594, ptr noundef nonnull @__PRETTY_FUNCTION__.m25p80_write_protect_pin_irq_handler) #14
  unreachable

if.end:                                           ; preds = %entry
  %tobool = icmp ne i32 %level, 0
  %wp_level = getelementptr inbounds nuw i8, ptr %call.i, i64 256
  %frombool = zext i1 %tobool to i8
  store i8 %frombool, ptr %wp_level, align 8
  ret void
}